; Function Attrs: mustprogress uwtable
define void @_ZN2cv6detail14TimelapserCrop10initializeERKSt6vectorINS_6Point_IiEESaIS4_EERKS2_INS_5Size_IiEESaISA_EE(ptr noundef nonnull align 8 dereferenceable(104) %0, ptr noundef nonnull align 8 dereferenceable(24) %1, ptr noundef nonnull align 8 dereferenceable(24) %2) unnamed_addr #3 align 2 {
  %4 = tail call { i64, i64 } @_ZN2cv6detail21resultRoiIntersectionERKSt6vectorINS_6Point_IiEESaIS3_EERKS1_INS_5Size_IiEESaIS9_EE(ptr noundef nonnull align 8 dereferenceable(24) %1, ptr noundef nonnull align 8 dereferenceable(24) %2)
  %5 = extractvalue { i64, i64 } %4, 0
  %6 = extractvalue { i64, i64 } %4, 1
  %7 = getelementptr inbounds i8, ptr %0, i64 88
  store i64 %5, ptr %7, align 8
  %.sroa.2.0..sroa_idx = getelementptr inbounds i8, ptr %0, i64 96
  store i64 %6, ptr %.sroa.2.0..sroa_idx, align 8
  %8 = getelementptr inbounds i8, ptr %0, i64 8
  tail call void @_ZN2cv4UMat6createENS_5Size_IiEEiNS_14UMatUsageFlagsE(ptr noundef nonnull align 8 dereferenceable(80) %8, i64 %6, i32 noundef 19, i32 noundef 0)
  ret void
}